target datalayout = "e-m:e-p270:32:32-p271:32:32-p272:64:64-i64:64-i128:128-f80:128-n8:16:32:64-S128"
target triple = "x86_64-pc-linux-gnu"

@.str.58 = private unnamed_addr constant [10 x i8] c"Grayscale\00", align 1
@.str.59 = private unnamed_addr constant [22 x i8] c"Red, printing density\00", align 1
@.str.60 = private unnamed_addr constant [12 x i8] c"Red, Rec709\00", align 1
@.str.61 = private unnamed_addr constant [24 x i8] c"Green, printing density\00", align 1
@.str.62 = private unnamed_addr constant [14 x i8] c"Green, Rec709\00", align 1
@.str.63 = private unnamed_addr constant [23 x i8] c"Blue, printing density\00", align 1
@.str.64 = private unnamed_addr constant [13 x i8] c"Blue, Rec709\00", align 1
@.str.65 = private unnamed_addr constant [10 x i8] c"Undefined\00", align 1

; Function Attrs: mustprogress nounwind uwtable
define hidden noundef ptr @_ZN11OpenImageIO6v3_1_011CineonInput21get_descriptor_stringEN6cineon10DescriptorE(ptr noundef nonnull align 8 dereferenceable(2296) %0, i32 noundef %1) #7 align 2 {
  %3 = alloca ptr, align 8
  %4 = alloca ptr, align 8
  %5 = alloca i32, align 4
  store ptr %0, ptr %4, align 8, !tbaa !8
  store i32 %1, ptr %5, align 4, !tbaa !113
  %6 = load i32, ptr %5, align 4, !tbaa !113
  switch i32 %6, label %14 [
    i32 0, label %7
    i32 1, label %8
    i32 4, label %9
    i32 2, label %10
    i32 5, label %11
    i32 3, label %12
    i32 6, label %13
  ]

7:                                                ; preds = %2
  store ptr @.str.58, ptr %3, align 8
  br label %15

8:                                                ; preds = %2
  store ptr @.str.59, ptr %3, align 8
  br label %15

9:                                                ; preds = %2
  store ptr @.str.60, ptr %3, align 8
  br label %15

10:                                               ; preds = %2
  store ptr @.str.61, ptr %3, align 8
  br label %15

11:                                               ; preds = %2
  store ptr @.str.62, ptr %3, align 8
  br label %15

12:                                               ; preds = %2
  store ptr @.str.63, ptr %3, align 8
  br label %15

13:                                               ; preds = %2
  store ptr @.str.64, ptr %3, align 8
  br label %15

14:                                               ; preds = %2
  store ptr @.str.65, ptr %3, align 8
  br label %15

15:                                               ; preds = %14, %13, %12, %11, %10, %9, %8, %7
  %16 = load ptr, ptr %3, align 8
  ret ptr %16
}