; Function Attrs: mustprogress nofree norecurse nosync nounwind willreturn memory(none) uwtable
define hidden noundef nonnull ptr @_ZN11OpenImageIO6v3_1_011CineonInput21get_descriptor_stringEN6cineon10DescriptorE(ptr noundef nonnull readnone align 8 captures(none) dereferenceable(2296) %0, i32 noundef %1) local_unnamed_addr #6 align 2 {
  %3 = icmp ult i32 %1, 7
  br i1 %3, label %switch.lookup, label %5

switch.lookup:                                    ; preds = %2
  %4 = zext nneg i32 %1 to i64
  %switch.gep = getelementptr inbounds nuw [7 x ptr], ptr @switch.table._ZN11OpenImageIO6v3_1_011CineonInput21get_descriptor_stringEN6cineon10DescriptorE, i64 0, i64 %4
  %switch.load = load ptr, ptr %switch.gep, align 8
  br label %5

5:                                                ; preds = %2, %switch.lookup
  %.0 = phi ptr [ %switch.load, %switch.lookup ], [ @.str.65, %2 ]
  ret ptr %.0
}